target datalayout = "e-m:e-p270:32:32-p271:32:32-p272:64:64-i64:64-i128:128-f80:128-n8:16:32:64-S128"
target triple = "x86_64-pc-linux-gnu"

%struct.tr2_tgt = type { ptr, ptr, ptr, ptr, ptr, ptr, ptr, ptr, ptr, ptr, ptr, ptr, ptr, ptr, ptr, ptr, ptr, ptr, ptr, ptr, ptr, ptr, ptr, ptr, ptr, ptr, ptr, ptr, ptr, ptr }

@trace2_enabled = internal global i32 0, align 4
@tr2_tgt_builtins = internal global [4 x ptr] [ptr @tr2_tgt_normal, ptr @tr2_tgt_perf, ptr @tr2_tgt_event, ptr null], align 16

; Function Attrs: nounwind uwtable
define dso_local void @trace2_data_json_fl(ptr noundef %0, i32 noundef %1, ptr noundef %2, ptr noundef %3, ptr noundef %4, ptr noundef %5) #0 {
  %7 = alloca ptr, align 8
  %8 = alloca i32, align 4
  %9 = alloca ptr, align 8
  %10 = alloca ptr, align 8
  %11 = alloca ptr, align 8
  %12 = alloca ptr, align 8
  %13 = alloca ptr, align 8
  %14 = alloca i32, align 4
  %15 = alloca i64, align 8
  %16 = alloca i64, align 8
  %17 = alloca i64, align 8
  %18 = alloca i32, align 4
  store ptr %0, ptr %7, align 8, !tbaa !4
  store i32 %1, ptr %8, align 4, !tbaa !9
  store ptr %2, ptr %9, align 8, !tbaa !4
  store ptr %3, ptr %10, align 8, !tbaa !72
  store ptr %4, ptr %11, align 8, !tbaa !4
  store ptr %5, ptr %12, align 8, !tbaa !121
  call void @llvm.lifetime.start.p0(i64 8, ptr %13) #9
  call void @llvm.lifetime.start.p0(i64 4, ptr %14) #9
  call void @llvm.lifetime.start.p0(i64 8, ptr %15) #9
  call void @llvm.lifetime.start.p0(i64 8, ptr %16) #9
  call void @llvm.lifetime.start.p0(i64 8, ptr %17) #9
  %19 = load i32, ptr @trace2_enabled, align 4, !tbaa !9
  %20 = icmp ne i32 %19, 0
  br i1 %20, label %22, label %21

21:                                               ; preds = %6
  store i32 1, ptr %18, align 4
  br label %69

22:                                               ; preds = %6
  %23 = call i64 @getnanotime()
  %24 = udiv i64 %23, 1000
  store i64 %24, ptr %15, align 8, !tbaa !21
  %25 = load i64, ptr %15, align 8, !tbaa !21
  %26 = call i64 @tr2tls_absolute_elapsed(i64 noundef %25)
  store i64 %26, ptr %16, align 8, !tbaa !21
  %27 = load i64, ptr %15, align 8, !tbaa !21
  %28 = call i64 @tr2tls_region_elasped_self(i64 noundef %27)
  store i64 %28, ptr %17, align 8, !tbaa !21
  store i32 0, ptr %14, align 4, !tbaa !9
  %29 = load i32, ptr %14, align 4, !tbaa !9
  %30 = sext i32 %29 to i64
  %31 = getelementptr inbounds [4 x ptr], ptr @tr2_tgt_builtins, i64 0, i64 %30
  %32 = load ptr, ptr %31, align 8, !tbaa !11
  store ptr %32, ptr %13, align 8, !tbaa !11
  br label %33

33:                                               ; preds = %61, %22
  %34 = load ptr, ptr %13, align 8, !tbaa !11
  %35 = icmp ne ptr %34, null
  br i1 %35, label %36, label %68

36:                                               ; preds = %33
  %37 = load ptr, ptr %13, align 8, !tbaa !11
  %38 = getelementptr inbounds nuw %struct.tr2_tgt, ptr %37, i32 0, i32 0
  %39 = load ptr, ptr %38, align 8, !tbaa !13
  %40 = call i32 @tr2_dst_trace_want(ptr noundef %39)
  %41 = icmp ne i32 %40, 0
  br i1 %41, label %42, label %60

42:                                               ; preds = %36
  %43 = load ptr, ptr %13, align 8, !tbaa !11
  %44 = getelementptr inbounds nuw %struct.tr2_tgt, ptr %43, i32 0, i32 26
  %45 = load ptr, ptr %44, align 8, !tbaa !123
  %46 = icmp ne ptr %45, null
  br i1 %46, label %47, label %59

47:                                               ; preds = %42
  %48 = load ptr, ptr %13, align 8, !tbaa !11
  %49 = getelementptr inbounds nuw %struct.tr2_tgt, ptr %48, i32 0, i32 26
  %50 = load ptr, ptr %49, align 8, !tbaa !123
  %51 = load ptr, ptr %7, align 8, !tbaa !4
  %52 = load i32, ptr %8, align 4, !tbaa !9
  %53 = load i64, ptr %16, align 8, !tbaa !21
  %54 = load i64, ptr %17, align 8, !tbaa !21
  %55 = load ptr, ptr %9, align 8, !tbaa !4
  %56 = load ptr, ptr %10, align 8, !tbaa !72
  %57 = load ptr, ptr %11, align 8, !tbaa !4
  %58 = load ptr, ptr %12, align 8, !tbaa !121
  call void %50(ptr noundef %51, i32 noundef %52, i64 noundef %53, i64 noundef %54, ptr noundef %55, ptr noundef %56, ptr noundef %57, ptr noundef %58)
  br label %59

59:                                               ; preds = %47, %42
  br label %60

60:                                               ; preds = %59, %36
  br label %61

61:                                               ; preds = %60
  %62 = load i32, ptr %14, align 4, !tbaa !9
  %63 = add nsw i32 %62, 1
  store i32 %63, ptr %14, align 4, !tbaa !9
  %64 = load i32, ptr %14, align 4, !tbaa !9
  %65 = sext i32 %64 to i64
  %66 = getelementptr inbounds [4 x ptr], ptr @tr2_tgt_builtins, i64 0, i64 %65
  %67 = load ptr, ptr %66, align 8, !tbaa !11
  store ptr %67, ptr %13, align 8, !tbaa !11
  br label %33, !llvm.loop !124

68:                                               ; preds = %33
  store i32 0, ptr %18, align 4
  br label %69

69:                                               ; preds = %68, %21
  call void @llvm.lifetime.end.p0(i64 8, ptr %17) #9
  call void @llvm.lifetime.end.p0(i64 8, ptr %16) #9
  call void @llvm.lifetime.end.p0(i64 8, ptr %15) #9
  call void @llvm.lifetime.end.p0(i64 4, ptr %14) #9
  call void @llvm.lifetime.end.p0(i64 8, ptr %13) #9
  %70 = load i32, ptr %18, align 4
  switch i32 %70, label %72 [
    i32 0, label %71
    i32 1, label %71
  ]

71:                                               ; preds = %69, %69
  ret void

72:                                               ; preds = %69
  unreachable
}